target datalayout = "e-m:e-p270:32:32-p271:32:32-p272:64:64-i64:64-i128:128-f80:128-n8:16:32:64-S128"
target triple = "x86_64-pc-linux-gnu"

%struct.H5D_vlen_bufsize_common_t = type { ptr, ptr, i64, i64 }

@H5_vlen_vl_buf_blk_free_list = global { i8, [3 x i8], i32, i32, [4 x i8], i64, ptr, ptr } { i8 0, [3 x i8] zeroinitializer, i32 0, i32 0, [4 x i8] zeroinitializer, i64 0, ptr @.str, ptr null }, align 8
@H5D_init_g = external global i8, align 1
@H5_libterm_g = external global i8, align 1
@.str.2 = private unnamed_addr constant [100 x i8] c"generated/home/dtcxzyw/WorkSpace/Projects/compilers/llvm-opt-benchmark/bench/hdf5/hdf5/src/H5Dint.c\00", align 1
@H5E_DATASET_g = external global i64, align 8
@H5E_CANTALLOC_g = external global i64, align 8
@__func__.H5D__vlen_get_buf_size_alloc = private unnamed_addr constant [29 x i8] c"H5D__vlen_get_buf_size_alloc\00", align 1
@.str.265 = private unnamed_addr constant [42 x i8] c"can't reallocate temporary VL data buffer\00", align 1

; Function Attrs: nounwind uwtable
define internal ptr @H5D__vlen_get_buf_size_alloc(i64 noundef %0, ptr noundef %1) #0 {
  %3 = alloca i64, align 8
  %4 = alloca ptr, align 8
  %5 = alloca ptr, align 8
  %6 = alloca ptr, align 8
  %7 = alloca i8, align 1
  store i64 %0, ptr %3, align 8, !tbaa !11
  store ptr %1, ptr %4, align 8, !tbaa !60
  call void @llvm.lifetime.start.p0(i64 8, ptr %5) #12
  %8 = load ptr, ptr %4, align 8, !tbaa !60
  store ptr %8, ptr %5, align 8, !tbaa !60
  call void @llvm.lifetime.start.p0(i64 8, ptr %6) #12
  store ptr null, ptr %6, align 8, !tbaa !60
  call void @llvm.lifetime.start.p0(i64 1, ptr %7) #12
  store i8 0, ptr %7, align 1, !tbaa !7
  %9 = load i8, ptr @H5D_init_g, align 1, !tbaa !7, !range !9, !noundef !10
  %10 = trunc i8 %9 to i1
  br i1 %10, label %15, label %11

11:                                               ; preds = %2
  %12 = load i8, ptr @H5_libterm_g, align 1, !tbaa !7, !range !9, !noundef !10
  %13 = trunc i8 %12 to i1
  %14 = xor i1 %13, true
  br label %15

15:                                               ; preds = %11, %2
  %16 = phi i1 [ true, %2 ], [ %14, %11 ]
  %17 = xor i1 %16, true
  %18 = xor i1 %17, true
  %19 = zext i1 %18 to i32
  %20 = sext i32 %19 to i64
  %21 = call i64 @llvm.expect.i64(i64 %20, i64 1)
  %22 = icmp ne i64 %21, 0
  br i1 %22, label %23, label %71

23:                                               ; preds = %15
  %24 = load i64, ptr %3, align 8, !tbaa !11
  %25 = load ptr, ptr %5, align 8, !tbaa !60
  %26 = getelementptr inbounds nuw %struct.H5D_vlen_bufsize_common_t, ptr %25, i32 0, i32 2
  %27 = load i64, ptr %26, align 8, !tbaa !156
  %28 = icmp ugt i64 %24, %27
  br i1 %28, label %29, label %61

29:                                               ; preds = %23
  %30 = load ptr, ptr %5, align 8, !tbaa !60
  %31 = getelementptr inbounds nuw %struct.H5D_vlen_bufsize_common_t, ptr %30, i32 0, i32 1
  %32 = load ptr, ptr %31, align 8, !tbaa !157
  %33 = load i64, ptr %3, align 8, !tbaa !11
  %34 = call ptr @H5FL_blk_realloc(ptr noundef @H5_vlen_vl_buf_blk_free_list, ptr noundef %32, i64 noundef %33)
  %35 = load ptr, ptr %5, align 8, !tbaa !60
  %36 = getelementptr inbounds nuw %struct.H5D_vlen_bufsize_common_t, ptr %35, i32 0, i32 1
  store ptr %34, ptr %36, align 8, !tbaa !157
  %37 = icmp eq ptr null, %34
  br i1 %37, label %38, label %57

38:                                               ; preds = %29
  br label %39

39:                                               ; preds = %38
  br label %40

40:                                               ; preds = %39
  br label %41

41:                                               ; preds = %40
  %42 = load i64, ptr @H5E_DATASET_g, align 8, !tbaa !11
  %43 = load i64, ptr @H5E_CANTALLOC_g, align 8, !tbaa !11
  %44 = call i32 (ptr, ptr, i32, i64, i64, ptr, ...) @H5E_printf_stack(ptr noundef @.str.2, ptr noundef @__func__.H5D__vlen_get_buf_size_alloc, i32 noundef 2662, i64 noundef %42, i64 noundef %43, ptr noundef @.str.265)
  br label %45

45:                                               ; preds = %41
  br label %46

46:                                               ; preds = %45
  store i8 1, ptr %7, align 1, !tbaa !7
  %47 = load i8, ptr %7, align 1, !tbaa !7, !range !9, !noundef !10
  %48 = trunc i8 %47 to i1
  %49 = zext i1 %48 to i8
  store i8 %49, ptr %7, align 1, !tbaa !7
  br label %50

50:                                               ; preds = %46
  br label %51

51:                                               ; preds = %50
  br label %52

52:                                               ; preds = %51
  store ptr null, ptr %6, align 8, !tbaa !60
  br label %70

53:                                               ; No predecessors!
  br label %54

54:                                               ; preds = %53
  br label %55

55:                                               ; preds = %54
  br label %56

56:                                               ; preds = %55
  br label %57

57:                                               ; preds = %56, %29
  %58 = load i64, ptr %3, align 8, !tbaa !11
  %59 = load ptr, ptr %5, align 8, !tbaa !60
  %60 = getelementptr inbounds nuw %struct.H5D_vlen_bufsize_common_t, ptr %59, i32 0, i32 2
  store i64 %58, ptr %60, align 8, !tbaa !156
  br label %61

61:                                               ; preds = %57, %23
  %62 = load i64, ptr %3, align 8, !tbaa !11
  %63 = load ptr, ptr %5, align 8, !tbaa !60
  %64 = getelementptr inbounds nuw %struct.H5D_vlen_bufsize_common_t, ptr %63, i32 0, i32 3
  %65 = load i64, ptr %64, align 8, !tbaa !158
  %66 = add i64 %65, %62
  store i64 %66, ptr %64, align 8, !tbaa !158
  %67 = load ptr, ptr %5, align 8, !tbaa !60
  %68 = getelementptr inbounds nuw %struct.H5D_vlen_bufsize_common_t, ptr %67, i32 0, i32 1
  %69 = load ptr, ptr %68, align 8, !tbaa !157
  store ptr %69, ptr %6, align 8, !tbaa !60
  br label %70

70:                                               ; preds = %61, %52
  br label %71

71:                                               ; preds = %70, %15
  %72 = load ptr, ptr %6, align 8, !tbaa !60
  call void @llvm.lifetime.end.p0(i64 1, ptr %7) #12
  call void @llvm.lifetime.end.p0(i64 8, ptr %6) #12
  call void @llvm.lifetime.end.p0(i64 8, ptr %5) #12
  ret ptr %72
}