; Function Attrs: nounwind uwtable
define internal ptr @H5D__vlen_get_buf_size_alloc(i64 noundef %0, ptr noundef captures(none) %1) #0 {
  %3 = load i8, ptr @H5D_init_g, align 1, !tbaa !3, !range !7, !noundef !8
  %4 = trunc nuw i8 %3 to i1
  %5 = load i8, ptr @H5_libterm_g, align 1, !range !7
  %6 = trunc nuw i8 %5 to i1
  %7 = xor i1 %6, true
  %8 = select i1 %4, i1 true, i1 %7
  br i1 %8, label %9, label %27, !prof !9

9:                                                ; preds = %2
  %10 = getelementptr inbounds nuw i8, ptr %1, i64 16
  %11 = load i64, ptr %10, align 8, !tbaa !136
  %12 = icmp ugt i64 %0, %11
  %13 = getelementptr inbounds nuw i8, ptr %1, i64 8
  %14 = load ptr, ptr %13, align 8, !tbaa !137
  br i1 %12, label %15, label %._crit_edge

15:                                               ; preds = %9
  %16 = tail call ptr @H5FL_blk_realloc(ptr noundef nonnull @H5_vlen_vl_buf_blk_free_list, ptr noundef %14, i64 noundef %0) #12
  store ptr %16, ptr %13, align 8, !tbaa !137
  %17 = icmp eq ptr %16, null
  br i1 %17, label %18, label %22

18:                                               ; preds = %15
  %19 = load i64, ptr @H5E_DATASET_g, align 8, !tbaa !10
  %20 = load i64, ptr @H5E_CANTALLOC_g, align 8, !tbaa !10
  %21 = tail call i32 (ptr, ptr, i32, i64, i64, ptr, ...) @H5E_printf_stack(ptr noundef nonnull @.str.2, ptr noundef nonnull @__func__.H5D__vlen_get_buf_size_alloc, i32 noundef 2662, i64 noundef %19, i64 noundef %20, ptr noundef nonnull @.str.265) #12
  br label %27

22:                                               ; preds = %15
  store i64 %0, ptr %10, align 8, !tbaa !136
  br label %._crit_edge

._crit_edge:                                      ; preds = %9, %22
  %23 = phi ptr [ %16, %22 ], [ %14, %9 ]
  %24 = getelementptr inbounds nuw i8, ptr %1, i64 24
  %25 = load i64, ptr %24, align 8, !tbaa !138
  %26 = add i64 %25, %0
  store i64 %26, ptr %24, align 8, !tbaa !138
  br label %27

27:                                               ; preds = %18, %._crit_edge, %2
  %.0 = phi ptr [ null, %18 ], [ %23, %._crit_edge ], [ null, %2 ]
  ret ptr %.0
}